; Function Attrs: nounwind uwtable
define ptr @l___private_Lean_Elab_PreDefinition_Structural_BRecOn_0__Lean_Elab_Structural_toBelow___lambda__2(ptr noundef %0, ptr noundef %1, ptr noundef %2, ptr noundef readonly captures(none) %3, ptr noundef %4, ptr noundef %5, ptr noundef %6, ptr noundef %7, ptr noundef %8, ptr noundef %9) local_unnamed_addr #0 {
  %11 = load ptr, ptr @l_Lean_instInhabitedExpr, align 8, !tbaa !4
  %12 = ptrtoint ptr %0 to i64
  %13 = and i64 %12, 1
  %.not.i = icmp eq i64 %13, 0
  br i1 %.not.i, label %lean_array_uget.exit.i, label %14

14:                                               ; preds = %10
  %15 = lshr i64 %12, 1
  %16 = getelementptr i8, ptr %3, i64 8
  %.val.i = load i64, ptr %16, align 8, !tbaa !12
  %17 = icmp ult i64 %15, %.val.i
  br i1 %17, label %18, label %lean_array_uget.exit.i

18:                                               ; preds = %14
  %19 = ptrtoint ptr %11 to i64
  %20 = and i64 %19, 1
  %.not14.i = icmp eq i64 %20, 0
  br i1 %.not14.i, label %21, label %lean_dec.exit.i

21:                                               ; preds = %18
  %22 = load i32, ptr %11, align 4, !tbaa !8
  %23 = icmp sgt i32 %22, 1
  br i1 %23, label %24, label %26, !prof !11

24:                                               ; preds = %21
  %25 = add nsw i32 %22, -1
  store i32 %25, ptr %11, align 4, !tbaa !8
  br label %lean_dec.exit.i

26:                                               ; preds = %21
  %.not.i.i = icmp eq i32 %22, 0
  br i1 %.not.i.i, label %lean_dec.exit.i, label %27

27:                                               ; preds = %26
  tail call void @lean_dec_ref_cold(ptr noundef nonnull %11) #6
  br label %lean_dec.exit.i

lean_dec.exit.i:                                  ; preds = %27, %26, %24, %18
  %28 = getelementptr inbounds nuw i8, ptr %3, i64 24
  %29 = getelementptr inbounds nuw [0 x ptr], ptr %28, i64 0, i64 %15
  %30 = load ptr, ptr %29, align 8, !tbaa !4
  %31 = ptrtoint ptr %30 to i64
  %32 = and i64 %31, 1
  %.not.i11.i = icmp eq i64 %32, 0
  br i1 %.not.i11.i, label %33, label %lean_array_get.exit

33:                                               ; preds = %lean_dec.exit.i
  %.val.i.i.i = load i32, ptr %30, align 4, !tbaa !8
  %34 = icmp sgt i32 %.val.i.i.i, 0
  br i1 %34, label %35, label %37, !prof !11

35:                                               ; preds = %33
  %36 = add nuw i32 %.val.i.i.i, 1
  store i32 %36, ptr %30, align 4, !tbaa !8
  br label %lean_array_get.exit

37:                                               ; preds = %33
  %.not.i.i.i = icmp eq i32 %.val.i.i.i, 0
  br i1 %.not.i.i.i, label %lean_array_get.exit, label %38

38:                                               ; preds = %37
  tail call void @lean_inc_ref_cold(ptr noundef nonnull %30) #6
  br label %lean_array_get.exit

lean_array_uget.exit.i:                           ; preds = %14, %10
  %39 = tail call ptr @lean_array_get_panic(ptr noundef %11) #6
  br label %lean_array_get.exit

lean_array_get.exit:                              ; preds = %lean_dec.exit.i, %35, %37, %38, %lean_array_uget.exit.i
  %.1.i = phi ptr [ %39, %lean_array_uget.exit.i ], [ %30, %38 ], [ %30, %37 ], [ %30, %35 ], [ %30, %lean_dec.exit.i ]
  %40 = tail call ptr @l___private_Lean_Elab_PreDefinition_Structural_BRecOn_0__Lean_Elab_Structural_toBelowAux(ptr noundef %.1.i, ptr noundef %4, ptr noundef %1, ptr noundef %2, ptr noundef %5, ptr noundef %6, ptr noundef %7, ptr noundef %8, ptr noundef %9)
  ret ptr %40
}